target datalayout = "e-m:e-p270:32:32-p271:32:32-p272:64:64-i64:64-i128:128-f80:128-n8:16:32:64-S128"
target triple = "x86_64-unknown-linux-gnu"

; Function Attrs: mustprogress uwtable
define noundef signext i8 @_ZNK6icu_758TimeZone12hasSameRulesERKS0_(ptr noundef nonnull align 8 dereferenceable(72) %this, ptr noundef nonnull align 8 dereferenceable(72) %other) unnamed_addr #0 align 2 {
entry:
  %this.addr = alloca ptr, align 8
  %other.addr = alloca ptr, align 8
  store ptr %this, ptr %this.addr, align 8
  store ptr %other, ptr %other.addr, align 8
  %this1 = load ptr, ptr %this.addr, align 8
  %vtable = load ptr, ptr %this1, align 8
  %vfn = getelementptr inbounds ptr, ptr %vtable, i64 8
  %0 = load ptr, ptr %vfn, align 8
  %call = call noundef i32 %0(ptr noundef nonnull align 8 dereferenceable(72) %this1)
  %1 = load ptr, ptr %other.addr, align 8
  %vtable2 = load ptr, ptr %1, align 8
  %vfn3 = getelementptr inbounds ptr, ptr %vtable2, i64 8
  %2 = load ptr, ptr %vfn3, align 8
  %call4 = call noundef i32 %2(ptr noundef nonnull align 8 dereferenceable(72) %1)
  %cmp = icmp eq i32 %call, %call4
  br i1 %cmp, label %land.rhs, label %land.end

land.rhs:                                         ; preds = %entry
  %vtable5 = load ptr, ptr %this1, align 8
  %vfn6 = getelementptr inbounds ptr, ptr %vtable5, i64 9
  %3 = load ptr, ptr %vfn6, align 8
  %call7 = call noundef signext i8 %3(ptr noundef nonnull align 8 dereferenceable(72) %this1)
  %conv = sext i8 %call7 to i32
  %4 = load ptr, ptr %other.addr, align 8
  %vtable8 = load ptr, ptr %4, align 8
  %vfn9 = getelementptr inbounds ptr, ptr %vtable8, i64 9
  %5 = load ptr, ptr %vfn9, align 8
  %call10 = call noundef signext i8 %5(ptr noundef nonnull align 8 dereferenceable(72) %4)
  %conv11 = sext i8 %call10 to i32
  %cmp12 = icmp eq i32 %conv, %conv11
  br label %land.end

land.end:                                         ; preds = %land.rhs, %entry
  %6 = phi i1 [ false, %entry ], [ %cmp12, %land.rhs ]
  %conv13 = zext i1 %6 to i8
  ret i8 %conv13
}