; Function Attrs: mustprogress uwtable
define noundef signext i8 @_ZNK6icu_758TimeZone12hasSameRulesERKS0_(ptr noundef nonnull align 8 dereferenceable(72) %this, ptr noundef nonnull align 8 dereferenceable(72) %other) unnamed_addr #0 align 2 {
entry:
  %vtable = load ptr, ptr %this, align 8
  %vfn = getelementptr inbounds i8, ptr %vtable, i64 64
  %0 = load ptr, ptr %vfn, align 8
  %call = tail call noundef i32 %0(ptr noundef nonnull align 8 dereferenceable(72) %this)
  %vtable2 = load ptr, ptr %other, align 8
  %vfn3 = getelementptr inbounds i8, ptr %vtable2, i64 64
  %1 = load ptr, ptr %vfn3, align 8
  %call4 = tail call noundef i32 %1(ptr noundef nonnull align 8 dereferenceable(72) %other)
  %cmp = icmp eq i32 %call, %call4
  br i1 %cmp, label %land.rhs, label %land.end

land.rhs:                                         ; preds = %entry
  %vtable5 = load ptr, ptr %this, align 8
  %vfn6 = getelementptr inbounds i8, ptr %vtable5, i64 72
  %2 = load ptr, ptr %vfn6, align 8
  %call7 = tail call noundef signext i8 %2(ptr noundef nonnull align 8 dereferenceable(72) %this)
  %vtable8 = load ptr, ptr %other, align 8
  %vfn9 = getelementptr inbounds i8, ptr %vtable8, i64 72
  %3 = load ptr, ptr %vfn9, align 8
  %call10 = tail call noundef signext i8 %3(ptr noundef nonnull align 8 dereferenceable(72) %other)
  %cmp12 = icmp eq i8 %call7, %call10
  %4 = zext i1 %cmp12 to i8
  br label %land.end

land.end:                                         ; preds = %land.rhs, %entry
  %conv13 = phi i8 [ 0, %entry ], [ %4, %land.rhs ]
  ret i8 %conv13
}